target datalayout = "e-m:e-p270:32:32-p271:32:32-p272:64:64-i64:64-i128:128-f80:128-n8:16:32:64-S128"
target triple = "x86_64-pc-linux-gnu"

%struct.MultirangeType = type { i32, i32, i32 }
%struct.RangeBound = type { i64, i8, i8, i8 }

; Function Attrs: nounwind uwtable
define dso_local zeroext i1 @multirange_before_multirange_internal(ptr noundef %0, ptr noundef %1, ptr noundef %2) #0 {
  %4 = alloca i1, align 1
  %5 = alloca ptr, align 8
  %6 = alloca ptr, align 8
  %7 = alloca ptr, align 8
  %8 = alloca %struct.RangeBound, align 8
  %9 = alloca %struct.RangeBound, align 8
  %10 = alloca %struct.RangeBound, align 8
  %11 = alloca %struct.RangeBound, align 8
  %12 = alloca i32, align 4
  store ptr %0, ptr %5, align 8
  store ptr %1, ptr %6, align 8
  store ptr %2, ptr %7, align 8
  call void @llvm.lifetime.start.p0(i64 16, ptr %8) #9
  call void @llvm.lifetime.start.p0(i64 16, ptr %9) #9
  call void @llvm.lifetime.start.p0(i64 16, ptr %10) #9
  call void @llvm.lifetime.start.p0(i64 16, ptr %11) #9
  %13 = load ptr, ptr %6, align 8
  %14 = getelementptr inbounds nuw %struct.MultirangeType, ptr %13, i32 0, i32 2
  %15 = load i32, ptr %14, align 4
  %16 = icmp eq i32 %15, 0
  br i1 %16, label %22, label %17

17:                                               ; preds = %3
  %18 = load ptr, ptr %7, align 8
  %19 = getelementptr inbounds nuw %struct.MultirangeType, ptr %18, i32 0, i32 2
  %20 = load i32, ptr %19, align 4
  %21 = icmp eq i32 %20, 0
  br i1 %21, label %22, label %23

22:                                               ; preds = %17, %3
  store i1 false, ptr %4, align 1
  store i32 1, ptr %12, align 4
  br label %35

23:                                               ; preds = %17
  %24 = load ptr, ptr %5, align 8
  %25 = load ptr, ptr %6, align 8
  %26 = load ptr, ptr %6, align 8
  %27 = getelementptr inbounds nuw %struct.MultirangeType, ptr %26, i32 0, i32 2
  %28 = load i32, ptr %27, align 4
  %29 = sub i32 %28, 1
  call void @multirange_get_bounds(ptr noundef %24, ptr noundef %25, i32 noundef %29, ptr noundef %8, ptr noundef %9)
  %30 = load ptr, ptr %5, align 8
  %31 = load ptr, ptr %7, align 8
  call void @multirange_get_bounds(ptr noundef %30, ptr noundef %31, i32 noundef 0, ptr noundef %10, ptr noundef %11)
  %32 = load ptr, ptr %5, align 8
  %33 = call i32 @range_cmp_bounds(ptr noundef %32, ptr noundef %9, ptr noundef %10)
  %34 = icmp slt i32 %33, 0
  store i1 %34, ptr %4, align 1
  store i32 1, ptr %12, align 4
  br label %35

35:                                               ; preds = %23, %22
  call void @llvm.lifetime.end.p0(i64 16, ptr %11) #9
  call void @llvm.lifetime.end.p0(i64 16, ptr %10) #9
  call void @llvm.lifetime.end.p0(i64 16, ptr %9) #9
  call void @llvm.lifetime.end.p0(i64 16, ptr %8) #9
  %36 = load i1, ptr %4, align 1
  ret i1 %36
}